target datalayout = "e-m:e-p270:32:32-p271:32:32-p272:64:64-i64:64-i128:128-f80:128-n8:16:32:64-S128"
target triple = "x86_64-pc-linux-gnu"

%struct.stbds_array_header = type { i64, i64, ptr, i64 }

; Function Attrs: nounwind uwtable
define ptr @stbds_arrgrowf(ptr noundef %0, i64 noundef %1, i64 noundef %2, i64 noundef %3) #0 {
  %5 = alloca ptr, align 8
  %6 = alloca ptr, align 8
  %7 = alloca i64, align 8
  %8 = alloca i64, align 8
  %9 = alloca i64, align 8
  %10 = alloca %struct.stbds_array_header, align 8
  %11 = alloca ptr, align 8
  %12 = alloca i64, align 8
  %13 = alloca i32, align 4
  store ptr %0, ptr %6, align 8, !tbaa !3
  store i64 %1, ptr %7, align 8, !tbaa !7
  store i64 %2, ptr %8, align 8, !tbaa !7
  store i64 %3, ptr %9, align 8, !tbaa !7
  call void @llvm.lifetime.start.p0(i64 32, ptr %10) #7
  call void @llvm.memset.p0.i64(ptr align 8 %10, i8 0, i64 32, i1 false)
  call void @llvm.lifetime.start.p0(i64 8, ptr %11) #7
  call void @llvm.lifetime.start.p0(i64 8, ptr %12) #7
  %14 = load ptr, ptr %6, align 8, !tbaa !3
  %15 = icmp ne ptr %14, null
  br i1 %15, label %16, label %21

16:                                               ; preds = %4
  %17 = load ptr, ptr %6, align 8, !tbaa !3
  %18 = getelementptr inbounds %struct.stbds_array_header, ptr %17, i64 -1
  %19 = getelementptr inbounds nuw %struct.stbds_array_header, ptr %18, i32 0, i32 0
  %20 = load i64, ptr %19, align 8, !tbaa !9
  br label %22

21:                                               ; preds = %4
  br label %22

22:                                               ; preds = %21, %16
  %23 = phi i64 [ %20, %16 ], [ 0, %21 ]
  %24 = load i64, ptr %8, align 8, !tbaa !7
  %25 = add i64 %23, %24
  store i64 %25, ptr %12, align 8, !tbaa !7
  %26 = load i64, ptr %12, align 8, !tbaa !7
  %27 = load i64, ptr %9, align 8, !tbaa !7
  %28 = icmp ugt i64 %26, %27
  br i1 %28, label %29, label %31

29:                                               ; preds = %22
  %30 = load i64, ptr %12, align 8, !tbaa !7
  store i64 %30, ptr %9, align 8, !tbaa !7
  br label %31

31:                                               ; preds = %29, %22
  %32 = load i64, ptr %9, align 8, !tbaa !7
  %33 = load ptr, ptr %6, align 8, !tbaa !3
  %34 = icmp ne ptr %33, null
  br i1 %34, label %35, label %40

35:                                               ; preds = %31
  %36 = load ptr, ptr %6, align 8, !tbaa !3
  %37 = getelementptr inbounds %struct.stbds_array_header, ptr %36, i64 -1
  %38 = getelementptr inbounds nuw %struct.stbds_array_header, ptr %37, i32 0, i32 1
  %39 = load i64, ptr %38, align 8, !tbaa !11
  br label %41

40:                                               ; preds = %31
  br label %41

41:                                               ; preds = %40, %35
  %42 = phi i64 [ %39, %35 ], [ 0, %40 ]
  %43 = icmp ule i64 %32, %42
  br i1 %43, label %44, label %46

44:                                               ; preds = %41
  %45 = load ptr, ptr %6, align 8, !tbaa !3
  store ptr %45, ptr %5, align 8
  store i32 1, ptr %13, align 4
  br label %112

46:                                               ; preds = %41
  %47 = load i64, ptr %9, align 8, !tbaa !7
  %48 = load ptr, ptr %6, align 8, !tbaa !3
  %49 = icmp ne ptr %48, null
  br i1 %49, label %50, label %55

50:                                               ; preds = %46
  %51 = load ptr, ptr %6, align 8, !tbaa !3
  %52 = getelementptr inbounds %struct.stbds_array_header, ptr %51, i64 -1
  %53 = getelementptr inbounds nuw %struct.stbds_array_header, ptr %52, i32 0, i32 1
  %54 = load i64, ptr %53, align 8, !tbaa !11
  br label %56

55:                                               ; preds = %46
  br label %56

56:                                               ; preds = %55, %50
  %57 = phi i64 [ %54, %50 ], [ 0, %55 ]
  %58 = mul i64 2, %57
  %59 = icmp ult i64 %47, %58
  br i1 %59, label %60, label %72

60:                                               ; preds = %56
  %61 = load ptr, ptr %6, align 8, !tbaa !3
  %62 = icmp ne ptr %61, null
  br i1 %62, label %63, label %68

63:                                               ; preds = %60
  %64 = load ptr, ptr %6, align 8, !tbaa !3
  %65 = getelementptr inbounds %struct.stbds_array_header, ptr %64, i64 -1
  %66 = getelementptr inbounds nuw %struct.stbds_array_header, ptr %65, i32 0, i32 1
  %67 = load i64, ptr %66, align 8, !tbaa !11
  br label %69

68:                                               ; preds = %60
  br label %69

69:                                               ; preds = %68, %63
  %70 = phi i64 [ %67, %63 ], [ 0, %68 ]
  %71 = mul i64 2, %70
  store i64 %71, ptr %9, align 8, !tbaa !7
  br label %77

72:                                               ; preds = %56
  %73 = load i64, ptr %9, align 8, !tbaa !7
  %74 = icmp ult i64 %73, 4
  br i1 %74, label %75, label %76

75:                                               ; preds = %72
  store i64 4, ptr %9, align 8, !tbaa !7
  br label %76

76:                                               ; preds = %75, %72
  br label %77

77:                                               ; preds = %76, %69
  %78 = load ptr, ptr %6, align 8, !tbaa !3
  %79 = icmp ne ptr %78, null
  br i1 %79, label %80, label %83

80:                                               ; preds = %77
  %81 = load ptr, ptr %6, align 8, !tbaa !3
  %82 = getelementptr inbounds %struct.stbds_array_header, ptr %81, i64 -1
  br label %84

83:                                               ; preds = %77
  br label %84

84:                                               ; preds = %83, %80
  %85 = phi ptr [ %82, %80 ], [ null, %83 ]
  %86 = load i64, ptr %7, align 8, !tbaa !7
  %87 = load i64, ptr %9, align 8, !tbaa !7
  %88 = mul i64 %86, %87
  %89 = add i64 %88, 32
  %90 = call ptr @realloc(ptr noundef %85, i64 noundef %89) #8
  store ptr %90, ptr %11, align 8, !tbaa !3
  %91 = load ptr, ptr %11, align 8, !tbaa !3
  %92 = getelementptr inbounds nuw i8, ptr %91, i64 32
  store ptr %92, ptr %11, align 8, !tbaa !3
  %93 = load ptr, ptr %6, align 8, !tbaa !3
  %94 = icmp eq ptr %93, null
  br i1 %94, label %95, label %105

95:                                               ; preds = %84
  %96 = load ptr, ptr %11, align 8, !tbaa !3
  %97 = getelementptr inbounds %struct.stbds_array_header, ptr %96, i64 -1
  %98 = getelementptr inbounds nuw %struct.stbds_array_header, ptr %97, i32 0, i32 0
  store i64 0, ptr %98, align 8, !tbaa !9
  %99 = load ptr, ptr %11, align 8, !tbaa !3
  %100 = getelementptr inbounds %struct.stbds_array_header, ptr %99, i64 -1
  %101 = getelementptr inbounds nuw %struct.stbds_array_header, ptr %100, i32 0, i32 2
  store ptr null, ptr %101, align 8, !tbaa !12
  %102 = load ptr, ptr %11, align 8, !tbaa !3
  %103 = getelementptr inbounds %struct.stbds_array_header, ptr %102, i64 -1
  %104 = getelementptr inbounds nuw %struct.stbds_array_header, ptr %103, i32 0, i32 3
  store i64 0, ptr %104, align 8, !tbaa !13
  br label %106

105:                                              ; preds = %84
  br label %106

106:                                              ; preds = %105, %95
  %107 = load i64, ptr %9, align 8, !tbaa !7
  %108 = load ptr, ptr %11, align 8, !tbaa !3
  %109 = getelementptr inbounds %struct.stbds_array_header, ptr %108, i64 -1
  %110 = getelementptr inbounds nuw %struct.stbds_array_header, ptr %109, i32 0, i32 1
  store i64 %107, ptr %110, align 8, !tbaa !11
  %111 = load ptr, ptr %11, align 8, !tbaa !3
  store ptr %111, ptr %5, align 8
  store i32 1, ptr %13, align 4
  br label %112

112:                                              ; preds = %106, %44
  call void @llvm.lifetime.end.p0(i64 8, ptr %12) #7
  call void @llvm.lifetime.end.p0(i64 8, ptr %11) #7
  call void @llvm.lifetime.end.p0(i64 32, ptr %10) #7
  %113 = load ptr, ptr %5, align 8
  ret ptr %113
}

; Function Attrs: nounwind uwtable
define ptr @stbds_hmput_default(ptr noundef %0, i64 noundef %1) #0 {
  %3 = alloca ptr, align 8
  %4 = alloca i64, align 8
  store ptr %0, ptr %3, align 8, !tbaa !3
  store i64 %1, ptr %4, align 8, !tbaa !7
  %5 = load ptr, ptr %3, align 8, !tbaa !3
  %6 = icmp eq ptr %5, null
  br i1 %6, label %16, label %7

7:                                                ; preds = %2
  %8 = load ptr, ptr %3, align 8, !tbaa !3
  %9 = load i64, ptr %4, align 8, !tbaa !7
  %10 = sub i64 0, %9
  %11 = getelementptr inbounds i8, ptr %8, i64 %10
  %12 = getelementptr inbounds %struct.stbds_array_header, ptr %11, i64 -1
  %13 = getelementptr inbounds nuw %struct.stbds_array_header, ptr %12, i32 0, i32 0
  %14 = load i64, ptr %13, align 8, !tbaa !9
  %15 = icmp eq i64 %14, 0
  br i1 %15, label %16, label %39

16:                                               ; preds = %7, %2
  %17 = load ptr, ptr %3, align 8, !tbaa !3
  %18 = icmp ne ptr %17, null
  br i1 %18, label %19, label %24

19:                                               ; preds = %16
  %20 = load ptr, ptr %3, align 8, !tbaa !3
  %21 = load i64, ptr %4, align 8, !tbaa !7
  %22 = sub i64 0, %21
  %23 = getelementptr inbounds i8, ptr %20, i64 %22
  br label %25

24:                                               ; preds = %16
  br label %25

25:                                               ; preds = %24, %19
  %26 = phi ptr [ %23, %19 ], [ null, %24 ]
  %27 = load i64, ptr %4, align 8, !tbaa !7
  %28 = call ptr @stbds_arrgrowf(ptr noundef %26, i64 noundef %27, i64 noundef 0, i64 noundef 1)
  store ptr %28, ptr %3, align 8, !tbaa !3
  %29 = load ptr, ptr %3, align 8, !tbaa !3
  %30 = getelementptr inbounds %struct.stbds_array_header, ptr %29, i64 -1
  %31 = getelementptr inbounds nuw %struct.stbds_array_header, ptr %30, i32 0, i32 0
  %32 = load i64, ptr %31, align 8, !tbaa !9
  %33 = add i64 %32, 1
  store i64 %33, ptr %31, align 8, !tbaa !9
  %34 = load ptr, ptr %3, align 8, !tbaa !3
  %35 = load i64, ptr %4, align 8, !tbaa !7
  call void @llvm.memset.p0.i64(ptr align 1 %34, i8 0, i64 %35, i1 false)
  %36 = load ptr, ptr %3, align 8, !tbaa !3
  %37 = load i64, ptr %4, align 8, !tbaa !7
  %38 = getelementptr inbounds nuw i8, ptr %36, i64 %37
  store ptr %38, ptr %3, align 8, !tbaa !3
  br label %39

39:                                               ; preds = %25, %7
  %40 = load ptr, ptr %3, align 8, !tbaa !3
  ret ptr %40
}